; Function Attrs: mustprogress nofree norecurse nosync nounwind sspstrong willreturn memory(argmem: write) uwtable
define internal void @set_16bit(ptr noundef writeonly captures(none) %s, i32 noundef %index, i32 noundef %val) #6 {
entry:
  %0 = and i32 %val, 65535
  %mac_reg = getelementptr inbounds nuw i8, ptr %s, i64 11376
  %idxprom = sext i32 %index to i64
  %arrayidx = getelementptr [32768 x i32], ptr %mac_reg, i64 0, i64 %idxprom
  store i32 %0, ptr %arrayidx, align 4
  ret void
}